target datalayout = "e-m:e-p270:32:32-p271:32:32-p272:64:64-i64:64-i128:128-f80:128-n8:16:32:64-S128"
target triple = "x86_64-pc-linux-gnu"

%struct.dt_lib_module_t = type { %struct.dt_action_t, ptr, ptr, ptr, ptr, ptr, ptr, ptr, ptr, ptr, ptr, ptr, ptr, ptr, ptr, ptr, ptr, ptr, ptr, ptr, ptr, ptr, ptr, ptr, ptr, ptr, ptr, ptr, ptr, ptr, ptr, [128 x i8], ptr, ptr, i32, ptr, ptr, ptr, i32 }
%struct.dt_action_t = type { i32, ptr, ptr, ptr, ptr, ptr }
%struct.dt_lib_module_info_t = type { ptr, i32, ptr, i32, ptr }

; Function Attrs: nounwind uwtable
define internal void @menuitem_manage_presets(ptr noundef %0, ptr noundef %1) #0 {
  %3 = alloca ptr, align 8
  %4 = alloca ptr, align 8
  store ptr %0, ptr %3, align 8, !tbaa !222
  store ptr %1, ptr %4, align 8, !tbaa !66
  %5 = load ptr, ptr %4, align 8, !tbaa !66
  %6 = getelementptr inbounds nuw %struct.dt_lib_module_info_t, ptr %5, i32 0, i32 4
  %7 = load ptr, ptr %6, align 8, !tbaa !122
  %8 = getelementptr inbounds nuw %struct.dt_lib_module_t, ptr %7, i32 0, i32 26
  %9 = load ptr, ptr %8, align 8, !tbaa !192
  %10 = icmp ne ptr %9, null
  br i1 %10, label %11, label %20

11:                                               ; preds = %2
  %12 = load ptr, ptr %4, align 8, !tbaa !66
  %13 = getelementptr inbounds nuw %struct.dt_lib_module_info_t, ptr %12, i32 0, i32 4
  %14 = load ptr, ptr %13, align 8, !tbaa !122
  %15 = getelementptr inbounds nuw %struct.dt_lib_module_t, ptr %14, i32 0, i32 26
  %16 = load ptr, ptr %15, align 8, !tbaa !192
  %17 = load ptr, ptr %4, align 8, !tbaa !66
  %18 = getelementptr inbounds nuw %struct.dt_lib_module_info_t, ptr %17, i32 0, i32 4
  %19 = load ptr, ptr %18, align 8, !tbaa !122
  call void %16(ptr noundef %19)
  br label %20

20:                                               ; preds = %11, %2
  ret void
}