; Function Attrs: nounwind uwtable
define internal void @menuitem_manage_presets(ptr readnone captures(none) %0, ptr noundef readonly captures(none) %1) #0 {
  %3 = getelementptr inbounds nuw i8, ptr %1, i64 32
  %4 = load ptr, ptr %3, align 8, !tbaa !104
  %5 = getelementptr inbounds nuw i8, ptr %4, i64 248
  %6 = load ptr, ptr %5, align 8, !tbaa !111
  %.not = icmp eq ptr %6, null
  br i1 %.not, label %8, label %7

7:                                                ; preds = %2
  tail call void %6(ptr noundef nonnull %4) #19
  br label %8

8:                                                ; preds = %7, %2
  ret void
}